; Function Attrs: mustprogress nounwind uwtable
define void @_ZN3net17QuicHeadersStreamD2Ev(ptr noundef nonnull align 8 dereferenceable(816) initializes((0, 8)) %0) unnamed_addr #9 align 2 personality ptr @__gxx_personality_v0 {
  store ptr getelementptr inbounds nuw inrange(-16, 136) (i8, ptr @_ZTVN3net17QuicHeadersStreamE, i64 16), ptr %0, align 8, !tbaa !3
  %2 = getelementptr inbounds nuw i8, ptr %0, i64 720
  tail call void @_ZN3net14QuicHeaderListD1Ev(ptr noundef nonnull align 8 dereferenceable(96) %2) #23
  %3 = getelementptr inbounds nuw i8, ptr %0, i64 712
  %4 = load ptr, ptr %3, align 8, !tbaa !310
  %.not.i = icmp eq ptr %4, null
  br i1 %.not.i, label %_ZNSt10unique_ptrIN3net17QuicHeadersStream17SpdyFramerVisitorESt14default_deleteIS2_EED2Ev.exit, label %_ZNKSt14default_deleteIN3net17QuicHeadersStream17SpdyFramerVisitorEEclEPS2_.exit.i

_ZNKSt14default_deleteIN3net17QuicHeadersStream17SpdyFramerVisitorEEclEPS2_.exit.i: ; preds = %1
  %5 = load ptr, ptr %4, align 8, !tbaa !3
  %6 = getelementptr inbounds nuw i8, ptr %5, i64 8
  %7 = load ptr, ptr %6, align 8
  tail call void %7(ptr noundef nonnull align 8 dereferenceable(120) %4) #23
  br label %_ZNSt10unique_ptrIN3net17QuicHeadersStream17SpdyFramerVisitorESt14default_deleteIS2_EED2Ev.exit

_ZNSt10unique_ptrIN3net17QuicHeadersStream17SpdyFramerVisitorESt14default_deleteIS2_EED2Ev.exit: ; preds = %1, %_ZNKSt14default_deleteIN3net17QuicHeadersStream17SpdyFramerVisitorEEclEPS2_.exit.i
  store ptr null, ptr %3, align 8, !tbaa !310
  %8 = getelementptr inbounds nuw i8, ptr %0, i64 448
  tail call void @_ZN3net10SpdyFramerD1Ev(ptr noundef nonnull align 8 dereferenceable(259) %8) #23
  tail call void @_ZN3net18ReliableQuicStreamD2Ev(ptr noundef nonnull align 8 dereferenceable(377) %0) #23
  ret void
}